; Function Attrs: mustprogress uwtable
define void @_ZN6icu_7523StringCharacterIteratorC2Ev(ptr noundef nonnull align 8 dereferenceable(96) %this) unnamed_addr #1 align 2 personality ptr @__gxx_personality_v0 {
invoke.cont:
  tail call void @_ZN6icu_7522UCharCharacterIteratorC2Ev(ptr noundef nonnull align 8 dereferenceable(32) %this)
  store ptr getelementptr inbounds ({ [29 x ptr] }, ptr @_ZTVN6icu_7523StringCharacterIteratorE, i64 0, i32 0, i64 2), ptr %this, align 8
  %text = getelementptr inbounds i8, ptr %this, i64 32
  store ptr getelementptr inbounds ({ [13 x ptr] }, ptr @_ZTVN6icu_7513UnicodeStringE, i64 0, i32 0, i64 2), ptr %text, align 8
  %fUnion2.i = getelementptr inbounds i8, ptr %this, i64 40
  store i16 2, ptr %fUnion2.i, align 8
  ret void
}